target datalayout = "e-m:e-p270:32:32-p271:32:32-p272:64:64-i64:64-i128:128-f80:128-n8:16:32:64-S128"
target triple = "x86_64-pc-linux-gnu"

%struct.rb_parser_string = type { i32, ptr, i64, ptr }
%struct.lex_context = type { i16, [2 x i8] }
%struct.parser_params = type { ptr, ptr, %struct.anon.12, i64, i64, i32, i32, i32, i32, i32, ptr, ptr, ptr, ptr, i32, i32, ptr, i64, ptr, ptr, ptr, ptr, i64, i64, %struct.anon.13, ptr, i32, ptr, i32, i64, %struct.lex_context, ptr, ptr, ptr, i32, i64, ptr, ptr, i32, ptr }
%struct.anon.12 = type { ptr, ptr, ptr, %struct.parser_string_buffer, ptr, ptr, ptr, ptr, ptr, ptr, i32, i32, i32, i32 }
%struct.parser_string_buffer = type { ptr, ptr }
%struct.anon.13 = type { ptr, i32, i32, i32, i32 }

@.str.815 = private unnamed_addr constant [26 x i8] c"unknown encoding name: %s\00", align 1
@.str.940 = private unnamed_addr constant [7 x i8] c"EUC-JP\00", align 1
@.str.941 = private unnamed_addr constant [12 x i8] c"Windows-31J\00", align 1

; Function Attrs: nounwind sspstrong uwtable
define internal i32 @PARSER_ENC_CODERANGE(ptr noundef %0) #0 {
  %2 = alloca ptr, align 8
  store ptr %0, ptr %2, align 8, !tbaa !14
  %3 = load ptr, ptr %2, align 8, !tbaa !14
  %4 = getelementptr inbounds nuw %struct.rb_parser_string, ptr %3, i32 0, i32 0
  %5 = load i32, ptr %4, align 8, !tbaa !23
  ret i32 %5
}

; Function Attrs: nounwind sspstrong uwtable
define internal void @PARSER_ENC_CODERANGE_CLEAR(ptr noundef %0) #0 {
  %2 = alloca ptr, align 8
  store ptr %0, ptr %2, align 8, !tbaa !14
  %3 = load ptr, ptr %2, align 8, !tbaa !14
  %4 = getelementptr inbounds nuw %struct.rb_parser_string, ptr %3, i32 0, i32 0
  store i32 0, ptr %4, align 8, !tbaa !23
  ret void
}

; Function Attrs: nounwind sspstrong uwtable
define internal zeroext i1 @PARSER_ENC_CODERANGE_ASCIIONLY(ptr noundef %0) #0 {
  %2 = alloca ptr, align 8
  store ptr %0, ptr %2, align 8, !tbaa !14
  %3 = load ptr, ptr %2, align 8, !tbaa !14
  %4 = call i32 @PARSER_ENC_CODERANGE(ptr noundef %3)
  %5 = icmp eq i32 %4, 1
  ret i1 %5
}

; Function Attrs: nounwind sspstrong uwtable
define internal ptr @find_enc(ptr noundef %0, ptr noundef %1) #0 {
  %3 = alloca ptr, align 8
  %4 = alloca ptr, align 8
  %5 = alloca i32, align 4
  store ptr %0, ptr %3, align 8, !tbaa !7
  store ptr %1, ptr %4, align 8, !tbaa !19
  call void @llvm.lifetime.start.p0(i64 4, ptr %5) #26
  %6 = load ptr, ptr %4, align 8, !tbaa !19
  %7 = call i32 @rb_enc_find_index(ptr noundef %6)
  store i32 %7, ptr %5, align 4, !tbaa !34
  %8 = load i32, ptr %5, align 4, !tbaa !34
  %9 = icmp slt i32 %8, 0
  br i1 %9, label %10, label %12

10:                                               ; preds = %2
  %11 = load ptr, ptr %4, align 8, !tbaa !19
  call void (ptr, ...) @rb_bug(ptr noundef @.str.815, ptr noundef %11) #32
  unreachable

12:                                               ; preds = %2
  %13 = load i32, ptr %5, align 4, !tbaa !34
  %14 = call ptr @rb_enc_from_index(i32 noundef %13)
  call void @llvm.lifetime.end.p0(i64 4, ptr %5) #26
  ret ptr %14
}

; Function Attrs: nounwind sspstrong uwtable
define internal i32 @char_to_option(i32 noundef %0) #0 {
  %2 = alloca i32, align 4
  %3 = alloca i32, align 4
  store i32 %0, ptr %2, align 4, !tbaa !34
  call void @llvm.lifetime.start.p0(i64 4, ptr %3) #26
  %4 = load i32, ptr %2, align 4, !tbaa !34
  switch i32 %4, label %8 [
    i32 105, label %5
    i32 120, label %6
    i32 109, label %7
  ]

5:                                                ; preds = %1
  store i32 1, ptr %3, align 4, !tbaa !34
  br label %9

6:                                                ; preds = %1
  store i32 2, ptr %3, align 4, !tbaa !34
  br label %9

7:                                                ; preds = %1
  store i32 4, ptr %3, align 4, !tbaa !34
  br label %9

8:                                                ; preds = %1
  store i32 0, ptr %3, align 4, !tbaa !34
  br label %9

9:                                                ; preds = %8, %7, %6, %5
  %10 = load i32, ptr %3, align 4, !tbaa !34
  call void @llvm.lifetime.end.p0(i64 4, ptr %3) #26
  ret i32 %10
}

; Function Attrs: nounwind sspstrong uwtable
define internal ptr @rb_parser_enc_associate(ptr noundef %0, ptr noundef %1, ptr noundef %2) #0 {
  %4 = alloca ptr, align 8
  %5 = alloca ptr, align 8
  %6 = alloca ptr, align 8
  %7 = alloca ptr, align 8
  store ptr %0, ptr %5, align 8, !tbaa !7
  store ptr %1, ptr %6, align 8, !tbaa !14
  store ptr %2, ptr %7, align 8, !tbaa !21
  %8 = load ptr, ptr %6, align 8, !tbaa !14
  %9 = call ptr @rb_parser_str_get_encoding(ptr noundef %8)
  %10 = load ptr, ptr %7, align 8, !tbaa !21
  %11 = icmp eq ptr %9, %10
  br i1 %11, label %12, label %14

12:                                               ; preds = %3
  %13 = load ptr, ptr %6, align 8, !tbaa !14
  store ptr %13, ptr %4, align 8
  br label %23

14:                                               ; preds = %3
  %15 = load ptr, ptr %6, align 8, !tbaa !14
  %16 = call zeroext i1 @PARSER_ENC_CODERANGE_ASCIIONLY(ptr noundef %15)
  br i1 %16, label %19, label %17

17:                                               ; preds = %14
  %18 = load ptr, ptr %6, align 8, !tbaa !14
  call void @PARSER_ENC_CODERANGE_CLEAR(ptr noundef %18)
  br label %19

19:                                               ; preds = %17, %14
  %20 = load ptr, ptr %6, align 8, !tbaa !14
  %21 = load ptr, ptr %7, align 8, !tbaa !21
  call void @rb_parser_string_set_encoding(ptr noundef %20, ptr noundef %21)
  %22 = load ptr, ptr %6, align 8, !tbaa !14
  store ptr %22, ptr %4, align 8
  br label %23

23:                                               ; preds = %19, %12
  %24 = load ptr, ptr %4, align 8
  ret ptr %24
}

; Function Attrs: nounwind sspstrong uwtable
define internal zeroext i1 @PARSER_ENCODING_IS_ASCII8BIT(ptr noundef %0, ptr noundef %1) #0 {
  %3 = alloca ptr, align 8
  %4 = alloca ptr, align 8
  store ptr %0, ptr %3, align 8, !tbaa !7
  store ptr %1, ptr %4, align 8, !tbaa !14
  %5 = load ptr, ptr %4, align 8, !tbaa !14
  %6 = call ptr @rb_parser_str_get_encoding(ptr noundef %5)
  %7 = call nonnull ptr @rb_ascii8bit_encoding()
  %8 = icmp eq ptr %6, %7
  ret i1 %8
}

; Function Attrs: nounwind sspstrong uwtable
define internal void @rb_parser_string_set_encoding(ptr noundef %0, ptr noundef %1) #0 {
  %3 = alloca ptr, align 8
  %4 = alloca ptr, align 8
  store ptr %0, ptr %3, align 8, !tbaa !14
  store ptr %1, ptr %4, align 8, !tbaa !21
  %5 = load ptr, ptr %4, align 8, !tbaa !21
  %6 = load ptr, ptr %3, align 8, !tbaa !14
  %7 = getelementptr inbounds nuw %struct.rb_parser_string, ptr %6, i32 0, i32 1
  store ptr %5, ptr %7, align 8, !tbaa !26
  ret void
}

; Function Attrs: nounwind sspstrong uwtable
define internal zeroext i1 @rb_parser_is_ascii_string(ptr noundef %0, ptr noundef %1) #0 {
  %3 = alloca ptr, align 8
  %4 = alloca ptr, align 8
  store ptr %0, ptr %3, align 8, !tbaa !7
  store ptr %1, ptr %4, align 8, !tbaa !14
  %5 = load ptr, ptr %3, align 8, !tbaa !7
  %6 = load ptr, ptr %4, align 8, !tbaa !14
  %7 = call i32 @rb_parser_enc_str_coderange(ptr noundef %5, ptr noundef %6)
  %8 = icmp eq i32 %7, 1
  ret i1 %8
}

; Function Attrs: nounwind sspstrong uwtable
define internal ptr @rb_parser_str_get_encoding(ptr noundef %0) #0 {
  %2 = alloca ptr, align 8
  store ptr %0, ptr %2, align 8, !tbaa !14
  %3 = load ptr, ptr %2, align 8, !tbaa !14
  %4 = getelementptr inbounds nuw %struct.rb_parser_string, ptr %3, i32 0, i32 1
  %5 = load ptr, ptr %4, align 8, !tbaa !26
  ret ptr %5
}

; Function Attrs: nounwind sspstrong uwtable
define internal ptr @kcode_to_enc(ptr noundef %0, i32 noundef %1) #0 {
  %3 = alloca ptr, align 8
  %4 = alloca i32, align 4
  %5 = alloca ptr, align 8
  store ptr %0, ptr %3, align 8, !tbaa !7
  store i32 %1, ptr %4, align 4, !tbaa !34
  call void @llvm.lifetime.start.p0(i64 8, ptr %5) #26
  %6 = load i32, ptr %4, align 4, !tbaa !34
  switch i32 %6, label %17 [
    i32 1, label %7
    i32 2, label %9
    i32 3, label %12
    i32 4, label %15
  ]

7:                                                ; preds = %2
  %8 = call nonnull ptr @rb_ascii8bit_encoding()
  store ptr %8, ptr %5, align 8, !tbaa !21
  br label %18

9:                                                ; preds = %2
  %10 = load ptr, ptr %3, align 8, !tbaa !7
  %11 = call ptr @find_enc(ptr noundef %10, ptr noundef @.str.940)
  store ptr %11, ptr %5, align 8, !tbaa !21
  br label %18

12:                                               ; preds = %2
  %13 = load ptr, ptr %3, align 8, !tbaa !7
  %14 = call ptr @find_enc(ptr noundef %13, ptr noundef @.str.941)
  store ptr %14, ptr %5, align 8, !tbaa !21
  br label %18

15:                                               ; preds = %2
  %16 = call nonnull ptr @rb_utf8_encoding()
  store ptr %16, ptr %5, align 8, !tbaa !21
  br label %18

17:                                               ; preds = %2
  store ptr null, ptr %5, align 8, !tbaa !21
  br label %18

18:                                               ; preds = %17, %15, %12, %9, %7
  %19 = load ptr, ptr %5, align 8, !tbaa !21
  call void @llvm.lifetime.end.p0(i64 8, ptr %5) #26
  ret ptr %19
}

; Function Attrs: nounwind sspstrong uwtable
define internal i32 @char_to_option_kcode(i32 noundef %0, ptr noundef %1, ptr noundef %2) #0 {
  %4 = alloca i32, align 4
  %5 = alloca i32, align 4
  %6 = alloca ptr, align 8
  %7 = alloca ptr, align 8
  store i32 %0, ptr %5, align 4, !tbaa !34
  store ptr %1, ptr %6, align 8, !tbaa !555
  store ptr %2, ptr %7, align 8, !tbaa !555
  %8 = load ptr, ptr %6, align 8, !tbaa !555
  store i32 0, ptr %8, align 4, !tbaa !34
  %9 = load i32, ptr %5, align 4, !tbaa !34
  switch i32 %9, label %19 [
    i32 110, label %10
    i32 101, label %13
    i32 115, label %15
    i32 117, label %17
  ]

10:                                               ; preds = %3
  %11 = load ptr, ptr %7, align 8, !tbaa !555
  store i32 1, ptr %11, align 4, !tbaa !34
  %12 = load ptr, ptr %6, align 8, !tbaa !555
  store i32 32, ptr %12, align 4, !tbaa !34
  store i32 32, ptr %4, align 4
  br label %26

13:                                               ; preds = %3
  %14 = load ptr, ptr %7, align 8, !tbaa !555
  store i32 2, ptr %14, align 4, !tbaa !34
  br label %24

15:                                               ; preds = %3
  %16 = load ptr, ptr %7, align 8, !tbaa !555
  store i32 3, ptr %16, align 4, !tbaa !34
  br label %24

17:                                               ; preds = %3
  %18 = load ptr, ptr %7, align 8, !tbaa !555
  store i32 4, ptr %18, align 4, !tbaa !34
  br label %24

19:                                               ; preds = %3
  %20 = load ptr, ptr %7, align 8, !tbaa !555
  store i32 -1, ptr %20, align 4, !tbaa !34
  %21 = load i32, ptr %5, align 4, !tbaa !34
  %22 = call i32 @char_to_option(i32 noundef %21)
  %23 = load ptr, ptr %6, align 8, !tbaa !555
  store i32 %22, ptr %23, align 4, !tbaa !34
  store i32 %22, ptr %4, align 4
  br label %26

24:                                               ; preds = %17, %15, %13
  %25 = load ptr, ptr %6, align 8, !tbaa !555
  store i32 16, ptr %25, align 4, !tbaa !34
  store i32 1, ptr %4, align 4
  br label %26

26:                                               ; preds = %24, %19, %10
  %27 = load i32, ptr %4, align 4
  ret i32 %27
}

; Function Attrs: nounwind sspstrong uwtable
define dso_local i32 @rb_reg_fragment_setenc(ptr noundef %0, ptr noundef %1, i32 noundef %2) #0 {
  %4 = alloca i32, align 4
  %5 = alloca ptr, align 8
  %6 = alloca ptr, align 8
  %7 = alloca i32, align 4
  %8 = alloca i32, align 4
  %9 = alloca i32, align 4
  %10 = alloca i32, align 4
  %11 = alloca ptr, align 8
  %12 = alloca i32, align 4
  store ptr %0, ptr %5, align 8, !tbaa !7
  store ptr %1, ptr %6, align 8, !tbaa !14
  store i32 %2, ptr %7, align 4, !tbaa !34
  call void @llvm.lifetime.start.p0(i64 4, ptr %8) #26
  %13 = load i32, ptr %7, align 4, !tbaa !34
  %14 = ashr i32 %13, 8
  %15 = and i32 %14, 255
  store i32 %15, ptr %8, align 4, !tbaa !34
  %16 = load i32, ptr %8, align 4, !tbaa !34
  %17 = icmp ne i32 %16, 0
  br i1 %17, label %18, label %39

18:                                               ; preds = %3
  call void @llvm.lifetime.start.p0(i64 4, ptr %9) #26
  call void @llvm.lifetime.start.p0(i64 4, ptr %10) #26
  call void @llvm.lifetime.start.p0(i64 8, ptr %11) #26
  %19 = load i32, ptr %8, align 4, !tbaa !34
  %20 = call i32 @char_to_option_kcode(i32 noundef %19, ptr noundef %9, ptr noundef %10)
  %21 = load ptr, ptr %5, align 8, !tbaa !7
  %22 = load i32, ptr %10, align 4, !tbaa !34
  %23 = call ptr @kcode_to_enc(ptr noundef %21, i32 noundef %22)
  store ptr %23, ptr %11, align 8, !tbaa !21
  %24 = load ptr, ptr %11, align 8, !tbaa !21
  %25 = load ptr, ptr %6, align 8, !tbaa !14
  %26 = call ptr @rb_parser_str_get_encoding(ptr noundef %25)
  %27 = icmp ne ptr %24, %26
  br i1 %27, label %28, label %33

28:                                               ; preds = %18
  %29 = load ptr, ptr %5, align 8, !tbaa !7
  %30 = load ptr, ptr %6, align 8, !tbaa !14
  %31 = call zeroext i1 @rb_parser_is_ascii_string(ptr noundef %29, ptr noundef %30)
  br i1 %31, label %33, label %32

32:                                               ; preds = %28
  store i32 2, ptr %12, align 4
  br label %36

33:                                               ; preds = %28, %18
  %34 = load ptr, ptr %6, align 8, !tbaa !14
  %35 = load ptr, ptr %11, align 8, !tbaa !21
  call void @rb_parser_string_set_encoding(ptr noundef %34, ptr noundef %35)
  store i32 0, ptr %12, align 4
  br label %36

36:                                               ; preds = %32, %33
  call void @llvm.lifetime.end.p0(i64 8, ptr %11) #26
  call void @llvm.lifetime.end.p0(i64 4, ptr %10) #26
  call void @llvm.lifetime.end.p0(i64 4, ptr %9) #26
  %37 = load i32, ptr %12, align 4
  switch i32 %37, label %73 [
    i32 0, label %38
    i32 2, label %71
  ]

38:                                               ; preds = %36
  br label %70

39:                                               ; preds = %3
  %40 = load i32, ptr %7, align 4, !tbaa !34
  %41 = and i32 %40, 32
  %42 = icmp ne i32 %41, 0
  br i1 %42, label %43, label %57

43:                                               ; preds = %39
  %44 = load ptr, ptr %5, align 8, !tbaa !7
  %45 = load ptr, ptr %6, align 8, !tbaa !14
  %46 = call zeroext i1 @PARSER_ENCODING_IS_ASCII8BIT(ptr noundef %44, ptr noundef %45)
  br i1 %46, label %52, label %47

47:                                               ; preds = %43
  %48 = load ptr, ptr %5, align 8, !tbaa !7
  %49 = load ptr, ptr %6, align 8, !tbaa !14
  %50 = call zeroext i1 @rb_parser_is_ascii_string(ptr noundef %48, ptr noundef %49)
  br i1 %50, label %52, label %51

51:                                               ; preds = %47
  store i32 110, ptr %8, align 4, !tbaa !34
  br label %71

52:                                               ; preds = %47, %43
  %53 = load ptr, ptr %5, align 8, !tbaa !7
  %54 = load ptr, ptr %6, align 8, !tbaa !14
  %55 = call nonnull ptr @rb_ascii8bit_encoding()
  %56 = call ptr @rb_parser_enc_associate(ptr noundef %53, ptr noundef %54, ptr noundef %55)
  br label %69

57:                                               ; preds = %39
  %58 = load ptr, ptr %5, align 8, !tbaa !7
  %59 = getelementptr inbounds nuw %struct.parser_params, ptr %58, i32 0, i32 18
  %60 = load ptr, ptr %59, align 8, !tbaa !148
  %61 = call nonnull ptr @rb_usascii_encoding()
  %62 = icmp eq ptr %60, %61
  br i1 %62, label %63, label %68

63:                                               ; preds = %57
  %64 = load ptr, ptr %5, align 8, !tbaa !7
  %65 = load ptr, ptr %6, align 8, !tbaa !14
  %66 = call nonnull ptr @rb_ascii8bit_encoding()
  %67 = call ptr @rb_parser_enc_associate(ptr noundef %64, ptr noundef %65, ptr noundef %66)
  br label %68

68:                                               ; preds = %63, %57
  br label %69

69:                                               ; preds = %68, %52
  br label %70

70:                                               ; preds = %69, %38
  store i32 0, ptr %4, align 4
  store i32 1, ptr %12, align 4
  br label %73

71:                                               ; preds = %36, %51
  %72 = load i32, ptr %8, align 4, !tbaa !34
  store i32 %72, ptr %4, align 4
  store i32 1, ptr %12, align 4
  br label %73

73:                                               ; preds = %71, %70, %36
  call void @llvm.lifetime.end.p0(i64 4, ptr %8) #26
  %74 = load i32, ptr %4, align 4
  ret i32 %74
}