; Function Attrs: nounwind sspstrong uwtable
define dso_local range(i32 0, 256) i32 @rb_reg_fragment_setenc(ptr noundef readonly captures(none) %0, ptr noundef captures(none) %1, i32 noundef %2) local_unnamed_addr #0 {
  %4 = lshr i32 %2, 8
  %5 = and i32 %4, 255
  %trunc = trunc i32 %4 to i8
  switch i8 %trunc, label %kcode_to_enc.exit [
    i8 0, label %24
    i8 110, label %6
    i8 101, label %8
    i8 115, label %13
    i8 117, label %char_to_option_kcode.exit
  ]

6:                                                ; preds = %3
  %7 = tail call nonnull ptr @rb_ascii8bit_encoding() #35
  br label %kcode_to_enc.exit

8:                                                ; preds = %3
  %9 = tail call i32 @rb_enc_find_index(ptr noundef nonnull @.str.940) #35
  %10 = icmp slt i32 %9, 0
  br i1 %10, label %11, label %find_enc.exit.i

11:                                               ; preds = %8
  tail call void (ptr, ...) @rb_bug(ptr noundef nonnull @.str.815, ptr noundef nonnull @.str.940) #36
  unreachable

find_enc.exit.i:                                  ; preds = %8
  %12 = tail call ptr @rb_enc_from_index(i32 noundef %9) #35
  br label %kcode_to_enc.exit

13:                                               ; preds = %3
  %14 = tail call i32 @rb_enc_find_index(ptr noundef nonnull @.str.941) #35
  %15 = icmp slt i32 %14, 0
  br i1 %15, label %16, label %find_enc.exit3.i

16:                                               ; preds = %13
  tail call void (ptr, ...) @rb_bug(ptr noundef nonnull @.str.815, ptr noundef nonnull @.str.941) #36
  unreachable

find_enc.exit3.i:                                 ; preds = %13
  %17 = tail call ptr @rb_enc_from_index(i32 noundef %14) #35
  br label %kcode_to_enc.exit

char_to_option_kcode.exit:                        ; preds = %3
  %18 = tail call nonnull ptr @rb_utf8_encoding() #35
  br label %kcode_to_enc.exit

kcode_to_enc.exit:                                ; preds = %3, %6, %find_enc.exit.i, %find_enc.exit3.i, %char_to_option_kcode.exit
  %.0.i29 = phi ptr [ %18, %char_to_option_kcode.exit ], [ %17, %find_enc.exit3.i ], [ %12, %find_enc.exit.i ], [ %7, %6 ], [ null, %3 ]
  %19 = getelementptr i8, ptr %1, i64 8
  %.val = load ptr, ptr %19, align 8, !tbaa !27
  %.not26 = icmp eq ptr %.0.i29, %.val
  br i1 %.not26, label %23, label %20

20:                                               ; preds = %kcode_to_enc.exit
  %21 = tail call fastcc i32 @rb_parser_enc_str_coderange(ptr noundef nonnull %1)
  %22 = icmp eq i32 %21, 1
  br i1 %22, label %23, label %rb_parser_enc_associate.exit

23:                                               ; preds = %kcode_to_enc.exit, %20
  store ptr %.0.i29, ptr %19, align 8, !tbaa !27
  br label %rb_parser_enc_associate.exit

24:                                               ; preds = %3
  %25 = and i32 %2, 32
  %.not25 = icmp eq i32 %25, 0
  br i1 %.not25, label %40, label %26

26:                                               ; preds = %24
  %27 = getelementptr i8, ptr %1, i64 8
  %.val28 = load ptr, ptr %27, align 8, !tbaa !27
  %28 = tail call nonnull ptr @rb_ascii8bit_encoding() #35
  %29 = icmp eq ptr %.val28, %28
  br i1 %29, label %33, label %30

30:                                               ; preds = %26
  %31 = tail call fastcc i32 @rb_parser_enc_str_coderange(ptr noundef nonnull %1)
  %32 = icmp eq i32 %31, 1
  br i1 %32, label %33, label %rb_parser_enc_associate.exit

33:                                               ; preds = %30, %26
  %34 = tail call nonnull ptr @rb_ascii8bit_encoding() #35
  %.val.i = load ptr, ptr %27, align 8, !tbaa !27
  %35 = icmp eq ptr %.val.i, %34
  br i1 %35, label %rb_parser_enc_associate.exit, label %36

36:                                               ; preds = %33
  %.val9.i = load i32, ptr %1, align 8, !tbaa !26
  %37 = icmp eq i32 %.val9.i, 1
  br i1 %37, label %39, label %38

38:                                               ; preds = %36
  store i32 0, ptr %1, align 8, !tbaa !26
  br label %39

39:                                               ; preds = %38, %36
  store ptr %34, ptr %27, align 8, !tbaa !27
  br label %rb_parser_enc_associate.exit

40:                                               ; preds = %24
  %41 = getelementptr inbounds nuw i8, ptr %0, i64 216
  %42 = load ptr, ptr %41, align 8, !tbaa !172
  %43 = tail call nonnull ptr @rb_usascii_encoding() #35
  %44 = icmp eq ptr %42, %43
  br i1 %44, label %45, label %rb_parser_enc_associate.exit

45:                                               ; preds = %40
  %46 = tail call nonnull ptr @rb_ascii8bit_encoding() #35
  %47 = getelementptr i8, ptr %1, i64 8
  %.val.i30 = load ptr, ptr %47, align 8, !tbaa !27
  %48 = icmp eq ptr %.val.i30, %46
  br i1 %48, label %rb_parser_enc_associate.exit, label %49

49:                                               ; preds = %45
  %.val9.i31 = load i32, ptr %1, align 8, !tbaa !26
  %50 = icmp eq i32 %.val9.i31, 1
  br i1 %50, label %52, label %51

51:                                               ; preds = %49
  store i32 0, ptr %1, align 8, !tbaa !26
  br label %52

52:                                               ; preds = %51, %49
  store ptr %46, ptr %47, align 8, !tbaa !27
  br label %rb_parser_enc_associate.exit

rb_parser_enc_associate.exit:                     ; preds = %52, %45, %39, %33, %23, %20, %30, %40
  %.022 = phi i32 [ 0, %40 ], [ 110, %30 ], [ 0, %23 ], [ %5, %20 ], [ 0, %33 ], [ 0, %39 ], [ 0, %45 ], [ 0, %52 ]
  ret i32 %.022
}